target datalayout = "e-m:e-p270:32:32-p271:32:32-p272:64:64-i64:64-i128:128-f80:128-n8:16:32:64-S128"
target triple = "x86_64-pc-linux-gnu"

%struct.pg_compress_specification = type { i32, i32, i32, i32, i8, ptr }
%struct._archiveHandle = type { %struct.Archive, i32, ptr, ptr, i64, i64, i32, %struct.sqlparseInfo, i64, i32, ptr, i64, i64, i64, ptr, ptr, ptr, ptr, ptr, ptr, ptr, ptr, ptr, ptr, ptr, ptr, ptr, ptr, ptr, ptr, ptr, ptr, ptr, ptr, ptr, ptr, ptr, ptr, ptr, ptr, ptr, ptr, ptr, ptr, i32, i32, i8, i32, i8, i32, ptr, ptr, ptr, ptr, i32, i32, ptr, ptr, ptr, %struct.pg_compress_specification, i8, i32, i32, ptr, ptr, ptr, ptr, ptr, i32, ptr, i64, i64, i32, i32, i32, i32, ptr, ptr }
%struct.Archive = type { ptr, ptr, i32, ptr, i32, i8, i32, i32, i32, ptr, i32, i8, ptr, ptr, i8, i32, ptr }
%struct.sqlparseInfo = type { i32, i8, ptr }

; Function Attrs: nounwind uwtable
define dso_local void @DeCloneArchive(ptr noundef %0) #0 {
  %2 = alloca ptr, align 8
  store ptr %0, ptr %2, align 8
  %3 = load ptr, ptr %2, align 8
  %4 = getelementptr inbounds nuw %struct._archiveHandle, ptr %3, i32 0, i32 37
  %5 = load ptr, ptr %4, align 8
  %6 = load ptr, ptr %2, align 8
  call void %5(ptr noundef %6)
  %7 = load ptr, ptr %2, align 8
  %8 = getelementptr inbounds nuw %struct._archiveHandle, ptr %7, i32 0, i32 7
  %9 = getelementptr inbounds nuw %struct.sqlparseInfo, ptr %8, i32 0, i32 2
  %10 = load ptr, ptr %9, align 8
  %11 = icmp ne ptr %10, null
  br i1 %11, label %12, label %17

12:                                               ; preds = %1
  %13 = load ptr, ptr %2, align 8
  %14 = getelementptr inbounds nuw %struct._archiveHandle, ptr %13, i32 0, i32 7
  %15 = getelementptr inbounds nuw %struct.sqlparseInfo, ptr %14, i32 0, i32 2
  %16 = load ptr, ptr %15, align 8
  call void @destroyPQExpBuffer(ptr noundef %16)
  br label %17

17:                                               ; preds = %12, %1
  %18 = load ptr, ptr %2, align 8
  %19 = getelementptr inbounds nuw %struct._archiveHandle, ptr %18, i32 0, i32 64
  %20 = load ptr, ptr %19, align 8
  call void @free(ptr noundef %20) #11
  %21 = load ptr, ptr %2, align 8
  %22 = getelementptr inbounds nuw %struct._archiveHandle, ptr %21, i32 0, i32 65
  %23 = load ptr, ptr %22, align 8
  call void @free(ptr noundef %23) #11
  %24 = load ptr, ptr %2, align 8
  %25 = getelementptr inbounds nuw %struct._archiveHandle, ptr %24, i32 0, i32 66
  %26 = load ptr, ptr %25, align 8
  call void @free(ptr noundef %26) #11
  %27 = load ptr, ptr %2, align 8
  %28 = getelementptr inbounds nuw %struct._archiveHandle, ptr %27, i32 0, i32 67
  %29 = load ptr, ptr %28, align 8
  call void @free(ptr noundef %29) #11
  %30 = load ptr, ptr %2, align 8
  %31 = getelementptr inbounds nuw %struct._archiveHandle, ptr %30, i32 0, i32 40
  %32 = load ptr, ptr %31, align 8
  call void @free(ptr noundef %32) #11
  %33 = load ptr, ptr %2, align 8
  call void @free(ptr noundef %33) #11
  ret void
}