; Function Attrs: nounwind uwtable
define dso_local void @DeCloneArchive(ptr noundef %0) local_unnamed_addr #0 {
  %2 = getelementptr inbounds nuw i8, ptr %0, i64 400
  %3 = load ptr, ptr %2, align 8
  tail call void %3(ptr noundef %0) #22
  %4 = getelementptr inbounds nuw i8, ptr %0, i64 160
  %5 = load ptr, ptr %4, align 8
  %.not = icmp eq ptr %5, null
  br i1 %.not, label %7, label %6

6:                                                ; preds = %1
  tail call void @destroyPQExpBuffer(ptr noundef nonnull %5) #22
  br label %7

7:                                                ; preds = %6, %1
  %8 = getelementptr inbounds nuw i8, ptr %0, i64 600
  %9 = load ptr, ptr %8, align 8
  tail call void @free(ptr noundef %9) #22
  %10 = getelementptr inbounds nuw i8, ptr %0, i64 608
  %11 = load ptr, ptr %10, align 8
  tail call void @free(ptr noundef %11) #22
  %12 = getelementptr inbounds nuw i8, ptr %0, i64 616
  %13 = load ptr, ptr %12, align 8
  tail call void @free(ptr noundef %13) #22
  %14 = getelementptr inbounds nuw i8, ptr %0, i64 624
  %15 = load ptr, ptr %14, align 8
  tail call void @free(ptr noundef %15) #22
  %16 = getelementptr inbounds nuw i8, ptr %0, i64 424
  %17 = load ptr, ptr %16, align 8
  tail call void @free(ptr noundef %17) #22
  tail call void @free(ptr noundef nonnull %0) #22
  ret void
}